target datalayout = "e-m:e-p270:32:32-p271:32:32-p272:64:64-i64:64-i128:128-f80:128-n8:16:32:64-S128"
target triple = "x86_64-unknown-linux-gnu"

%"class.node::MutexBase" = type { %union.pthread_mutex_t }
%union.pthread_mutex_t = type { %struct.__pthread_mutex_s }
%struct.__pthread_mutex_s = type { i32, i32, i32, i32, i32, i16, i16, %struct.__pthread_internal_list }
%struct.__pthread_internal_list = type { ptr, ptr }
%"class.v8::IndirectHandleBase" = type { ptr }
%"class.node::cares_wrap::ChannelWrap" = type { %"class.node::AsyncWrap", ptr, ptr, i8, i8, i8, i32, i32, i32, %"class.std::unordered_set" }
%"class.node::AsyncWrap" = type { %"class.node::BaseObject", i32, i8, double, double }
%"class.node::BaseObject" = type { %"class.node::MemoryRetainer", %"class.v8::Global", ptr, ptr }
%"class.node::MemoryRetainer" = type { ptr }
%"class.v8::Global" = type { %"class.v8::PersistentBase" }
%"class.v8::PersistentBase" = type { %"class.v8::IndirectHandleBase" }
%"class.std::unordered_set" = type { %"class.std::_Hashtable" }
%"class.std::_Hashtable" = type { ptr, i64, %"struct.std::__detail::_Hash_node_base", i64, %"struct.std::__detail::_Prime_rehash_policy", ptr }
%"struct.std::__detail::_Hash_node_base" = type { ptr }
%"struct.std::__detail::_Prime_rehash_policy" = type { float, i64 }
%"class.node::ListNode" = type { ptr, ptr }
%struct.uv__queue = type { ptr, ptr }
%struct.uv_timer_s = type { ptr, ptr, i32, ptr, %struct.uv__queue, %union.anon, ptr, i32, ptr, [3 x ptr], i64, i64, i64 }
%union.anon = type { [4 x ptr] }
%class.anon.554 = type { i8 }
%"class.node::Environment" = type { %"class.node::MemoryRetainer", %"class.std::unordered_multimap", %"class.std::__cxx11::list", ptr, ptr, %struct.uv_timer_s, %struct.uv_check_s, %struct.uv_idle_s, %struct.uv_prepare_s, %struct.uv_check_s, %struct.uv_async_s, i64, %"struct.std::atomic", %"struct.std::atomic", %"class.node::AsyncHooks", %"class.node::ImmediateInfo", %"class.node::AliasedBufferBase.64", %"class.node::TickInfo", %"class.node::permission::Permission", i64, %"class.std::shared_ptr", i8, i8, i8, i8, i8, i8, i64, %"class.std::vector.90", %"class.std::unordered_set.95", %"class.std::unique_ptr", %"class.std::unique_ptr.117", %"class.std::__cxx11::basic_string", %"class.std::__cxx11::basic_string", %"class.std::__cxx11::basic_string", i64, %"class.std::unique_ptr.129", %"class.std::__cxx11::basic_string", %"class.std::__cxx11::basic_string", i64, %"class.std::shared_ptr.137", %"class.std::shared_ptr.140", %"class.std::vector.143", %"class.std::vector.143", %"class.std::__cxx11::basic_string", i8, i32, i32, i8, i32, i32, i32, i32, %"class.node::AliasedBufferBase.64", %"class.node::AliasedBufferBase.54", i32, %"class.std::unique_ptr.148", %"class.node::AliasedBufferBase.64", i64, double, i64, %"class.std::unique_ptr.156", i8, i64, i64, %"class.std::unordered_set.164", %"class.std::unique_ptr.184", i8, %"class.std::__cxx11::list.192", %"class.node::ListHead", %"class.node::ListHead.198", %"class.std::__cxx11::list.199", i32, i32, %"class.node::EnabledDebugList", %"class.std::vector.204", %"class.std::__cxx11::list.209", %"class.node::MutexBase", %"class.std::__cxx11::list.214", %"class.node::CallbackQueue", %"class.node::MutexBase", %"class.node::CallbackQueue", %"class.node::CallbackQueue", i8, %"struct.std::atomic.229", %"class.node::CleanupQueue", i8, %"class.std::unordered_set.247", %"class.std::function", %"class.std::unique_ptr.262", %"class.node::builtins::BuiltinLoader", %"class.std::function.276", %"class.std::unordered_map.278" }
%"class.std::unordered_multimap" = type { %"class.std::_Hashtable.26" }
%"class.std::_Hashtable.26" = type { ptr, i64, %"struct.std::__detail::_Hash_node_base", i64, %"struct.std::__detail::_Prime_rehash_policy", ptr }
%"class.std::__cxx11::list" = type { %"class.std::__cxx11::_List_base" }
%"class.std::__cxx11::_List_base" = type { %"struct.std::__cxx11::_List_base<node::binding::DLib, std::allocator<node::binding::DLib>>::_List_impl" }
%"struct.std::__cxx11::_List_base<node::binding::DLib, std::allocator<node::binding::DLib>>::_List_impl" = type { %"struct.std::__detail::_List_node_header" }
%"struct.std::__detail::_List_node_header" = type { %"struct.std::__detail::_List_node_base", i64 }
%"struct.std::__detail::_List_node_base" = type { ptr, ptr }
%struct.uv_idle_s = type { ptr, ptr, i32, ptr, %struct.uv__queue, %union.anon.49, ptr, i32, ptr, %struct.uv__queue }
%union.anon.49 = type { [4 x ptr] }
%struct.uv_prepare_s = type { ptr, ptr, i32, ptr, %struct.uv__queue, %union.anon.50, ptr, i32, ptr, %struct.uv__queue }
%union.anon.50 = type { [4 x ptr] }
%struct.uv_check_s = type { ptr, ptr, i32, ptr, %struct.uv__queue, %union.anon.48, ptr, i32, ptr, %struct.uv__queue }
%union.anon.48 = type { [4 x ptr] }
%struct.uv_async_s = type { ptr, ptr, i32, ptr, %struct.uv__queue, %union.anon.51, ptr, i32, ptr, %struct.uv__queue, i32 }
%union.anon.51 = type { [4 x ptr] }
%"struct.std::atomic" = type { %"struct.std::__atomic_base" }
%"struct.std::__atomic_base" = type { i8 }
%"class.node::AsyncHooks" = type { %"class.node::MemoryRetainer", %"class.node::AliasedBufferBase", %"class.node::AliasedBufferBase.54", %"class.node::AliasedBufferBase", %"class.v8::Global.57", %"class.std::vector", ptr, %"struct.std::array" }
%"class.node::AliasedBufferBase" = type { %"class.node::MemoryRetainer", ptr, i64, i64, ptr, %"class.v8::Global.52", ptr }
%"class.v8::Global.52" = type { %"class.v8::PersistentBase.53" }
%"class.v8::PersistentBase.53" = type { %"class.v8::IndirectHandleBase" }
%"class.v8::Global.57" = type { %"class.v8::PersistentBase.58" }
%"class.v8::PersistentBase.58" = type { %"class.v8::IndirectHandleBase" }
%"class.std::vector" = type { %"struct.std::_Vector_base" }
%"struct.std::_Vector_base" = type { %"struct.std::_Vector_base<v8::Local<v8::Object>, std::allocator<v8::Local<v8::Object>>>::_Vector_impl" }
%"struct.std::_Vector_base<v8::Local<v8::Object>, std::allocator<v8::Local<v8::Object>>>::_Vector_impl" = type { %"struct.std::_Vector_base<v8::Local<v8::Object>, std::allocator<v8::Local<v8::Object>>>::_Vector_impl_data" }
%"struct.std::_Vector_base<v8::Local<v8::Object>, std::allocator<v8::Local<v8::Object>>>::_Vector_impl_data" = type { ptr, ptr, ptr }
%"struct.std::array" = type { [4 x %"class.v8::Global.62"] }
%"class.v8::Global.62" = type { %"class.v8::PersistentBase.63" }
%"class.v8::PersistentBase.63" = type { %"class.v8::IndirectHandleBase" }
%"class.node::ImmediateInfo" = type { %"class.node::MemoryRetainer", %"class.node::AliasedBufferBase.54" }
%"class.node::TickInfo" = type { %"class.node::MemoryRetainer", %"class.node::AliasedBufferBase.67" }
%"class.node::AliasedBufferBase.67" = type { %"class.node::MemoryRetainer", ptr, i64, i64, ptr, %"class.v8::Global.68", ptr }
%"class.v8::Global.68" = type { %"class.v8::PersistentBase.69" }
%"class.v8::PersistentBase.69" = type { %"class.v8::IndirectHandleBase" }
%"class.node::permission::Permission" = type <{ %"class.std::unordered_map.70", i8, [7 x i8] }>
%"class.std::unordered_map.70" = type { %"class.std::_Hashtable.71" }
%"class.std::_Hashtable.71" = type { ptr, i64, %"struct.std::__detail::_Hash_node_base", i64, %"struct.std::__detail::_Prime_rehash_policy", ptr }
%"class.std::shared_ptr" = type { %"class.std::__shared_ptr" }
%"class.std::__shared_ptr" = type { ptr, %"class.std::__shared_count" }
%"class.std::__shared_count" = type { ptr }
%"class.std::vector.90" = type { %"struct.std::_Vector_base.91" }
%"struct.std::_Vector_base.91" = type { %"struct.std::_Vector_base<double, std::allocator<double>>::_Vector_impl" }
%"struct.std::_Vector_base<double, std::allocator<double>>::_Vector_impl" = type { %"struct.std::_Vector_base<double, std::allocator<double>>::_Vector_impl_data" }
%"struct.std::_Vector_base<double, std::allocator<double>>::_Vector_impl_data" = type { ptr, ptr, ptr }
%"class.std::unordered_set.95" = type { %"class.std::_Hashtable.96" }
%"class.std::_Hashtable.96" = type { ptr, i64, %"struct.std::__detail::_Hash_node_base", i64, %"struct.std::__detail::_Prime_rehash_policy", ptr }
%"class.std::unique_ptr" = type { %"struct.std::__uniq_ptr_data" }
%"struct.std::__uniq_ptr_data" = type { %"class.std::__uniq_ptr_impl" }
%"class.std::__uniq_ptr_impl" = type { %"class.std::tuple" }
%"class.std::tuple" = type { %"struct.std::_Tuple_impl" }
%"struct.std::_Tuple_impl" = type { %"struct.std::_Head_base.116" }
%"struct.std::_Head_base.116" = type { ptr }
%"class.std::unique_ptr.117" = type { %"struct.std::__uniq_ptr_data.118" }
%"struct.std::__uniq_ptr_data.118" = type { %"class.std::__uniq_ptr_impl.119" }
%"class.std::__uniq_ptr_impl.119" = type { %"class.std::tuple.120" }
%"class.std::tuple.120" = type { %"struct.std::_Tuple_impl.121" }
%"struct.std::_Tuple_impl.121" = type { %"struct.std::_Head_base.124" }
%"struct.std::_Head_base.124" = type { ptr }
%"class.std::unique_ptr.129" = type { %"struct.std::__uniq_ptr_data.130" }
%"struct.std::__uniq_ptr_data.130" = type { %"class.std::__uniq_ptr_impl.131" }
%"class.std::__uniq_ptr_impl.131" = type { %"class.std::tuple.132" }
%"class.std::tuple.132" = type { %"struct.std::_Tuple_impl.133" }
%"struct.std::_Tuple_impl.133" = type { %"struct.std::_Head_base.136" }
%"struct.std::_Head_base.136" = type { ptr }
%"class.std::shared_ptr.137" = type { %"class.std::__shared_ptr.138" }
%"class.std::__shared_ptr.138" = type { ptr, %"class.std::__shared_count" }
%"class.std::shared_ptr.140" = type { %"class.std::__shared_ptr.141" }
%"class.std::__shared_ptr.141" = type { ptr, %"class.std::__shared_count" }
%"class.std::vector.143" = type { %"struct.std::_Vector_base.144" }
%"struct.std::_Vector_base.144" = type { %"struct.std::_Vector_base<std::__cxx11::basic_string<char>, std::allocator<std::__cxx11::basic_string<char>>>::_Vector_impl" }
%"struct.std::_Vector_base<std::__cxx11::basic_string<char>, std::allocator<std::__cxx11::basic_string<char>>>::_Vector_impl" = type { %"struct.std::_Vector_base<std::__cxx11::basic_string<char>, std::allocator<std::__cxx11::basic_string<char>>>::_Vector_impl_data" }
%"struct.std::_Vector_base<std::__cxx11::basic_string<char>, std::allocator<std::__cxx11::basic_string<char>>>::_Vector_impl_data" = type { ptr, ptr, ptr }
%"class.std::__cxx11::basic_string" = type { %"struct.std::__cxx11::basic_string<char>::_Alloc_hider", i64, %union.anon.128 }
%"struct.std::__cxx11::basic_string<char>::_Alloc_hider" = type { ptr }
%union.anon.128 = type { i64, [8 x i8] }
%"class.node::AliasedBufferBase.54" = type { %"class.node::MemoryRetainer", ptr, i64, i64, ptr, %"class.v8::Global.55", ptr }
%"class.v8::Global.55" = type { %"class.v8::PersistentBase.56" }
%"class.v8::PersistentBase.56" = type { %"class.v8::IndirectHandleBase" }
%"class.std::unique_ptr.148" = type { %"struct.std::__uniq_ptr_data.149" }
%"struct.std::__uniq_ptr_data.149" = type { %"class.std::__uniq_ptr_impl.150" }
%"class.std::__uniq_ptr_impl.150" = type { %"class.std::tuple.151" }
%"class.std::tuple.151" = type { %"struct.std::_Tuple_impl.152" }
%"struct.std::_Tuple_impl.152" = type { %"struct.std::_Head_base.155" }
%"struct.std::_Head_base.155" = type { ptr }
%"class.node::AliasedBufferBase.64" = type { %"class.node::MemoryRetainer", ptr, i64, i64, ptr, %"class.v8::Global.65", ptr }
%"class.v8::Global.65" = type { %"class.v8::PersistentBase.66" }
%"class.v8::PersistentBase.66" = type { %"class.v8::IndirectHandleBase" }
%"class.std::unique_ptr.156" = type { %"struct.std::__uniq_ptr_data.157" }
%"struct.std::__uniq_ptr_data.157" = type { %"class.std::__uniq_ptr_impl.158" }
%"class.std::__uniq_ptr_impl.158" = type { %"class.std::tuple.159" }
%"class.std::tuple.159" = type { %"struct.std::_Tuple_impl.160" }
%"struct.std::_Tuple_impl.160" = type { %"struct.std::_Head_base.163" }
%"struct.std::_Head_base.163" = type { ptr }
%"class.std::unordered_set.164" = type { %"class.std::_Hashtable.165" }
%"class.std::_Hashtable.165" = type { ptr, i64, %"struct.std::__detail::_Hash_node_base", i64, %"struct.std::__detail::_Prime_rehash_policy", ptr }
%"class.std::unique_ptr.184" = type { %"struct.std::__uniq_ptr_data.185" }
%"struct.std::__uniq_ptr_data.185" = type { %"class.std::__uniq_ptr_impl.186" }
%"class.std::__uniq_ptr_impl.186" = type { %"class.std::tuple.187" }
%"class.std::tuple.187" = type { %"struct.std::_Tuple_impl.188" }
%"struct.std::_Tuple_impl.188" = type { %"struct.std::_Head_base.191" }
%"struct.std::_Head_base.191" = type { ptr }
%"class.std::__cxx11::list.192" = type { %"class.std::__cxx11::_List_base.193" }
%"class.std::__cxx11::_List_base.193" = type { %"struct.std::__cxx11::_List_base<node::DeserializeRequest, std::allocator<node::DeserializeRequest>>::_List_impl" }
%"struct.std::__cxx11::_List_base<node::DeserializeRequest, std::allocator<node::DeserializeRequest>>::_List_impl" = type { %"struct.std::__detail::_List_node_header" }
%"class.node::ListHead" = type { %"class.node::ListNode.197" }
%"class.node::ListNode.197" = type { ptr, ptr }
%"class.node::ListHead.198" = type { %"class.node::ListNode" }
%"class.std::__cxx11::list.199" = type { %"class.std::__cxx11::_List_base.200" }
%"class.std::__cxx11::_List_base.200" = type { %"struct.std::__cxx11::_List_base<node::Environment::HandleCleanup, std::allocator<node::Environment::HandleCleanup>>::_List_impl" }
%"struct.std::__cxx11::_List_base<node::Environment::HandleCleanup, std::allocator<node::Environment::HandleCleanup>>::_List_impl" = type { %"struct.std::__detail::_List_node_header" }
%"class.node::EnabledDebugList" = type { [75 x i8] }
%"class.std::vector.204" = type { %"struct.std::_Vector_base.205" }
%"struct.std::_Vector_base.205" = type { %"struct.std::_Vector_base<v8::Global<v8::Context>, std::allocator<v8::Global<v8::Context>>>::_Vector_impl" }
%"struct.std::_Vector_base<v8::Global<v8::Context>, std::allocator<v8::Global<v8::Context>>>::_Vector_impl" = type { %"struct.std::_Vector_base<v8::Global<v8::Context>, std::allocator<v8::Global<v8::Context>>>::_Vector_impl_data" }
%"struct.std::_Vector_base<v8::Global<v8::Context>, std::allocator<v8::Global<v8::Context>>>::_Vector_impl_data" = type { ptr, ptr, ptr }
%"class.std::__cxx11::list.209" = type { %"class.std::__cxx11::_List_base.210" }
%"class.std::__cxx11::_List_base.210" = type { %"struct.std::__cxx11::_List_base<node::node_module, std::allocator<node::node_module>>::_List_impl" }
%"struct.std::__cxx11::_List_base<node::node_module, std::allocator<node::node_module>>::_List_impl" = type { %"struct.std::__detail::_List_node_header" }
%"class.std::__cxx11::list.214" = type { %"class.std::__cxx11::_List_base.215" }
%"class.std::__cxx11::_List_base.215" = type { %"struct.std::__cxx11::_List_base<node::Environment::ExitCallback, std::allocator<node::Environment::ExitCallback>>::_List_impl" }
%"struct.std::__cxx11::_List_base<node::Environment::ExitCallback, std::allocator<node::Environment::ExitCallback>>::_List_impl" = type { %"struct.std::__detail::_List_node_header" }
%"class.node::CallbackQueue" = type { %"struct.std::atomic.219", %"class.std::unique_ptr.221", ptr }
%"struct.std::atomic.219" = type { %"struct.std::__atomic_base.220" }
%"struct.std::__atomic_base.220" = type { i64 }
%"class.std::unique_ptr.221" = type { %"struct.std::__uniq_ptr_data.222" }
%"struct.std::__uniq_ptr_data.222" = type { %"class.std::__uniq_ptr_impl.223" }
%"class.std::__uniq_ptr_impl.223" = type { %"class.std::tuple.224" }
%"class.std::tuple.224" = type { %"struct.std::_Tuple_impl.225" }
%"struct.std::_Tuple_impl.225" = type { %"struct.std::_Head_base.228" }
%"struct.std::_Head_base.228" = type { ptr }
%"struct.std::atomic.229" = type { %"struct.std::__atomic_base.230" }
%"struct.std::__atomic_base.230" = type { ptr }
%"class.node::CleanupQueue" = type { %"class.node::MemoryRetainer", %"class.std::unordered_set.231", i64 }
%"class.std::unordered_set.231" = type { %"class.std::_Hashtable.232" }
%"class.std::_Hashtable.232" = type { ptr, i64, %"struct.std::__detail::_Hash_node_base", i64, %"struct.std::__detail::_Prime_rehash_policy", ptr }
%"class.std::unordered_set.247" = type { %"class.std::_Hashtable.248" }
%"class.std::_Hashtable.248" = type { ptr, i64, %"struct.std::__detail::_Hash_node_base", i64, %"struct.std::__detail::_Prime_rehash_policy", ptr }
%"class.std::function" = type { %"class.std::_Function_base", ptr }
%"class.std::_Function_base" = type { %"union.std::_Any_data", ptr }
%"union.std::_Any_data" = type { %"union.std::_Nocopy_types" }
%"union.std::_Nocopy_types" = type { { i64, i64 } }
%"class.std::unique_ptr.262" = type { %"struct.std::__uniq_ptr_data.263" }
%"struct.std::__uniq_ptr_data.263" = type { %"class.std::__uniq_ptr_impl.264" }
%"class.std::__uniq_ptr_impl.264" = type { %"class.std::tuple.265" }
%"class.std::tuple.265" = type { %"struct.std::_Tuple_impl.266" }
%"struct.std::_Tuple_impl.266" = type { %"struct.std::_Head_base.269" }
%"struct.std::_Head_base.269" = type { ptr }
%"class.node::builtins::BuiltinLoader" = type { %"class.node::ThreadsafeCopyOnWrite", %"class.node::UnionBytes", %"class.std::shared_ptr.273" }
%"class.node::ThreadsafeCopyOnWrite" = type { %"class.node::CopyOnWrite" }
%"class.node::CopyOnWrite" = type { %"class.std::shared_ptr.270" }
%"class.std::shared_ptr.270" = type { %"class.std::__shared_ptr.271" }
%"class.std::__shared_ptr.271" = type { ptr, %"class.std::__shared_count" }
%"class.node::UnionBytes" = type { ptr, ptr }
%"class.std::shared_ptr.273" = type { %"class.std::__shared_ptr.274" }
%"class.std::__shared_ptr.274" = type { ptr, %"class.std::__shared_count" }
%"class.std::function.276" = type { %"class.std::_Function_base", ptr }
%"class.std::unordered_map.278" = type { %"class.std::_Hashtable.279" }
%"class.std::_Hashtable.279" = type { ptr, i64, %"struct.std::__detail::_Hash_node_base", i64, %"struct.std::__detail::_Prime_rehash_policy", ptr }
%struct.CloseData.553 = type { ptr, %class.anon, ptr }
%class.anon = type { i8 }
%"class.node::Realm" = type { %"class.node::MemoryRetainer", %"class.std::set", %"class.std::set.376", %"class.std::set.376", %"class.std::vector.143", ptr, ptr, %"class.v8::Global.384", %"class.v8::Global.62", %"class.v8::Global.62", %"class.v8::Global.62", %"class.v8::Global", %"class.v8::Global.62", %"class.v8::Global.62", %"class.v8::Global.62", %"class.v8::Global", %"class.v8::Global.62", %"class.v8::Global.62", %"class.v8::Global.62", %"class.v8::Global.62", %"class.v8::Global.62", %"class.v8::Global.62", %"class.v8::Global.62", %"class.v8::Global.62", %"class.v8::Global.62", %"class.v8::Global.62", %"class.v8::Global.62", %"class.v8::Global.62", %"class.v8::Global.62", %"class.v8::Global.62", %"class.v8::Global.62", %"class.v8::Global.62", %"class.v8::Global.62", %"class.v8::Global.62", %"class.v8::Global.62", %"class.v8::Global.62", %"class.v8::Global.62", %"class.v8::Global.62", %"class.v8::Global.62", %"class.v8::Global.62", %"class.v8::Global.62", %"class.v8::Global.62", %"class.v8::Global.62", %"class.v8::Global.62", %"class.v8::Global", %"class.v8::Global.62", %"class.v8::Global.62", %"class.v8::Global.62", %"class.v8::Global", %"class.v8::Global", %"class.v8::Global", %"class.v8::Global", %"class.v8::Global", %"class.v8::Global", %"class.v8::Global.62", %"class.v8::Global.62", %"class.v8::Global.62", %"class.v8::Global.62", %"class.v8::Global.62", %"class.v8::Global.62", %"class.v8::Global.62", %"class.v8::Global.62", %"class.v8::Global.62", %"class.v8::Global.62", %"class.v8::Global.62", %"class.v8::Global.62", %"class.v8::Global.62", %"class.v8::Global.62", i32, i8, i64, i64, %"struct.std::array.386", %"class.node::CleanupQueue" }
%"class.std::set" = type { %"class.std::_Rb_tree" }
%"class.std::_Rb_tree" = type { %"struct.std::_Rb_tree<node::node_module *, node::node_module *, std::_Identity<node::node_module *>, std::less<node::node_module *>>::_Rb_tree_impl" }
%"struct.std::_Rb_tree<node::node_module *, node::node_module *, std::_Identity<node::node_module *>, std::less<node::node_module *>>::_Rb_tree_impl" = type { %"struct.std::_Rb_tree_key_compare", %"struct.std::_Rb_tree_header" }
%"struct.std::_Rb_tree_key_compare" = type { %"struct.std::less" }
%"struct.std::less" = type { i8 }
%"struct.std::_Rb_tree_header" = type { %"struct.std::_Rb_tree_node_base", i64 }
%"struct.std::_Rb_tree_node_base" = type { i32, ptr, ptr, ptr }
%"class.std::set.376" = type { %"class.std::_Rb_tree.377" }
%"class.std::_Rb_tree.377" = type { %"struct.std::_Rb_tree<std::__cxx11::basic_string<char>, std::__cxx11::basic_string<char>, std::_Identity<std::__cxx11::basic_string<char>>, std::less<std::__cxx11::basic_string<char>>>::_Rb_tree_impl" }
%"struct.std::_Rb_tree<std::__cxx11::basic_string<char>, std::__cxx11::basic_string<char>, std::_Identity<std::__cxx11::basic_string<char>>, std::less<std::__cxx11::basic_string<char>>>::_Rb_tree_impl" = type { %"struct.std::_Rb_tree_key_compare.381", %"struct.std::_Rb_tree_header" }
%"struct.std::_Rb_tree_key_compare.381" = type { %"struct.std::less.382" }
%"struct.std::less.382" = type { i8 }
%"class.v8::Global.384" = type { %"class.v8::PersistentBase.385" }
%"class.v8::PersistentBase.385" = type { %"class.v8::IndirectHandleBase" }
%"struct.std::array.386" = type { [12 x %"class.node::BaseObjectPtrImpl.387"] }
%"class.node::BaseObjectPtrImpl.387" = type { %union.anon.388 }
%union.anon.388 = type { ptr }

; Function Attrs: mustprogress nounwind uwtable
define internal noundef ptr @"_ZZN4node11Environment11CloseHandleI10uv_timer_sZNS_10cares_wrap11ChannelWrap10CloseTimerEvE3$_0EEvPT_T0_ENKUlP11uv_handle_sE_cvPFvSA_EEv"(ptr noundef nonnull align 1 dereferenceable(1) %this) #4 align 2 {
entry:
  %this.addr = alloca ptr, align 8
  store ptr %this, ptr %this.addr, align 8
  ret ptr @"_ZZN4node11Environment11CloseHandleI10uv_timer_sZNS_10cares_wrap11ChannelWrap10CloseTimerEvE3$_0EEvPT_T0_ENUlP11uv_handle_sE_8__invokeESA_"
}

; Function Attrs: mustprogress nounwind uwtable
define linkonce_odr dso_local noundef ptr @_ZNK4node5Realm3envEv(ptr noundef nonnull align 8 dereferenceable(872) %this) #4 comdat align 2 {
entry:
  %this.addr = alloca ptr, align 8
  store ptr %this, ptr %this.addr, align 8
  %this1 = load ptr, ptr %this.addr, align 8
  %env_ = getelementptr inbounds %"class.node::Realm", ptr %this1, i32 0, i32 5
  %0 = load ptr, ptr %env_, align 8
  ret ptr %0
}

; Function Attrs: mustprogress nounwind uwtable
define internal void @"_ZN4node11Environment11CloseHandleI10uv_timer_sZNS_10cares_wrap11ChannelWrap10CloseTimerEvE3$_0EEvPT_T0_"(ptr noundef nonnull align 8 dereferenceable(2872) %this, ptr noundef %handle) #4 align 2 {
entry:
  %this.addr = alloca ptr, align 8
  %handle.addr = alloca ptr, align 8
  %ref.tmp = alloca %class.anon.554, align 1
  store ptr %this, ptr %this.addr, align 8
  store ptr %handle, ptr %handle.addr, align 8
  %this1 = load ptr, ptr %this.addr, align 8
  %handle_cleanup_waiting_ = getelementptr inbounds %"class.node::Environment", ptr %this1, i32 0, i32 72
  %0 = load i32, ptr %handle_cleanup_waiting_, align 8
  %inc = add nsw i32 %0, 1
  store i32 %inc, ptr %handle_cleanup_waiting_, align 8
  %call = call noalias noundef nonnull ptr @_Znwm(i64 noundef 24) #17
  %env = getelementptr inbounds %struct.CloseData.553, ptr %call, i32 0, i32 0
  store ptr %this1, ptr %env, align 16
  %original_data = getelementptr inbounds %struct.CloseData.553, ptr %call, i32 0, i32 2
  %1 = load ptr, ptr %handle.addr, align 8
  %data = getelementptr inbounds %struct.uv_timer_s, ptr %1, i32 0, i32 0
  %2 = load ptr, ptr %data, align 8
  store ptr %2, ptr %original_data, align 16
  %3 = load ptr, ptr %handle.addr, align 8
  %data3 = getelementptr inbounds %struct.uv_timer_s, ptr %3, i32 0, i32 0
  store ptr %call, ptr %data3, align 8
  %4 = load ptr, ptr %handle.addr, align 8
  %call4 = call noundef ptr @"_ZZN4node11Environment11CloseHandleI10uv_timer_sZNS_10cares_wrap11ChannelWrap10CloseTimerEvE3$_0EEvPT_T0_ENKUlP11uv_handle_sE_cvPFvSA_EEv"(ptr noundef nonnull align 1 dereferenceable(1) %ref.tmp) #3
  call void @uv_close(ptr noundef %4, ptr noundef %call4)
  ret void
}

; Function Attrs: mustprogress nounwind uwtable
define linkonce_odr dso_local noundef ptr @_ZNK4node10BaseObject3envEv(ptr noundef nonnull align 8 dereferenceable(32) %this) #4 comdat align 2 {
entry:
  %this.addr = alloca ptr, align 8
  store ptr %this, ptr %this.addr, align 8
  %this1 = load ptr, ptr %this.addr, align 8
  %realm_ = getelementptr inbounds %"class.node::BaseObject", ptr %this1, i32 0, i32 2
  %0 = load ptr, ptr %realm_, align 8
  %call = call noundef ptr @_ZNK4node5Realm3envEv(ptr noundef nonnull align 8 dereferenceable(872) %0)
  ret ptr %call
}

; Function Attrs: mustprogress nounwind uwtable
define dso_local void @_ZN4node10cares_wrap11ChannelWrap10CloseTimerEv(ptr noundef nonnull align 8 dereferenceable(144) %this) #4 align 2 {
entry:
  %this.addr = alloca ptr, align 8
  store ptr %this, ptr %this.addr, align 8
  %this1 = load ptr, ptr %this.addr, align 8
  %timer_handle_ = getelementptr inbounds %"class.node::cares_wrap::ChannelWrap", ptr %this1, i32 0, i32 1
  %0 = load ptr, ptr %timer_handle_, align 8
  %cmp = icmp eq ptr %0, null
  br i1 %cmp, label %if.then, label %if.end

if.then:                                          ; preds = %entry
  br label %return

if.end:                                           ; preds = %entry
  %call = call noundef ptr @_ZNK4node10BaseObject3envEv(ptr noundef nonnull align 8 dereferenceable(32) %this1)
  %timer_handle_2 = getelementptr inbounds %"class.node::cares_wrap::ChannelWrap", ptr %this1, i32 0, i32 1
  %1 = load ptr, ptr %timer_handle_2, align 8
  call void @"_ZN4node11Environment11CloseHandleI10uv_timer_sZNS_10cares_wrap11ChannelWrap10CloseTimerEvE3$_0EEvPT_T0_"(ptr noundef nonnull align 8 dereferenceable(2872) %call, ptr noundef %1)
  %timer_handle_3 = getelementptr inbounds %"class.node::cares_wrap::ChannelWrap", ptr %this1, i32 0, i32 1
  store ptr null, ptr %timer_handle_3, align 8
  br label %return

return:                                           ; preds = %if.end, %if.then
  ret void
}