; Function Attrs: mustprogress nounwind uwtable
define dso_local void @_ZN4node10cares_wrap11ChannelWrap10CloseTimerEv(ptr nocapture noundef nonnull align 8 dereferenceable(144) %this) local_unnamed_addr #3 align 2 {
entry:
  %timer_handle_ = getelementptr inbounds i8, ptr %this, i64 56
  %0 = load ptr, ptr %timer_handle_, align 8
  %cmp = icmp eq ptr %0, null
  br i1 %cmp, label %return, label %if.end

if.end:                                           ; preds = %entry
  %realm_.i = getelementptr inbounds i8, ptr %this, i64 16
  %1 = load ptr, ptr %realm_.i, align 8
  %env_.i.i = getelementptr inbounds i8, ptr %1, i64 176
  %2 = load ptr, ptr %env_.i.i, align 8
  %handle_cleanup_waiting_.i = getelementptr inbounds i8, ptr %2, i64 2232
  %3 = load i32, ptr %handle_cleanup_waiting_.i, align 8
  %inc.i = add nsw i32 %3, 1
  store i32 %inc.i, ptr %handle_cleanup_waiting_.i, align 8
  %call.i = tail call noalias noundef nonnull dereferenceable(24) ptr @_Znwm(i64 noundef 24) #21
  store ptr %2, ptr %call.i, align 16
  %original_data.i = getelementptr inbounds i8, ptr %call.i, i64 16
  %4 = load ptr, ptr %0, align 8
  store ptr %4, ptr %original_data.i, align 16
  store ptr %call.i, ptr %0, align 8
  tail call void @uv_close(ptr noundef nonnull %0, ptr noundef nonnull @"_ZZN4node11Environment11CloseHandleI10uv_timer_sZNS_10cares_wrap11ChannelWrap10CloseTimerEvE3$_0EEvPT_T0_ENUlP11uv_handle_sE_8__invokeESA_") #20
  store ptr null, ptr %timer_handle_, align 8
  br label %return

return:                                           ; preds = %entry, %if.end
  ret void
}